; Function Attrs: nounwind uwtable
define void @Ivy_ObjDelete_rec(ptr noundef %0, ptr noundef %1, i32 noundef %2) local_unnamed_addr #0 {
  br label %tailrecurse

tailrecurse:                                      ; preds = %27, %3
  %.tr32 = phi ptr [ %1, %3 ], [ %15, %27 ]
  %.tr33 = phi i32 [ %2, %3 ], [ 1, %27 ]
  %.val24 = load i32, ptr %.tr32, align 8, !tbaa !20
  %.not = icmp eq i32 %.val24, 0
  br i1 %.not, label %30, label %4

4:                                                ; preds = %tailrecurse
  %5 = getelementptr i8, ptr %.tr32, i64 8
  %.val23 = load i32, ptr %5, align 8
  %6 = and i32 %.val23, 15
  %.not29 = icmp eq i32 %6, 1
  br i1 %.not29, label %30, label %7

7:                                                ; preds = %4
  %8 = getelementptr i8, ptr %.tr32, i64 16
  %.val = load ptr, ptr %8, align 8, !tbaa !24
  %9 = ptrtoint ptr %.val to i64
  %10 = and i64 %9, -2
  %11 = inttoptr i64 %10 to ptr
  %12 = getelementptr i8, ptr %.tr32, i64 24
  %.val22 = load ptr, ptr %12, align 8, !tbaa !25
  %13 = ptrtoint ptr %.val22 to i64
  %14 = and i64 %13, -2
  %15 = inttoptr i64 %14 to ptr
  tail call void @Ivy_ObjDelete(ptr noundef %0, ptr noundef nonnull %.tr32, i32 noundef %.tr33)
  %.not18 = icmp eq i64 %10, 0
  br i1 %.not18, label %23, label %16

16:                                               ; preds = %7
  %17 = getelementptr i8, ptr %11, i64 8
  %.val27 = load i32, ptr %17, align 8
  %18 = and i32 %.val27, 15
  %.not30 = icmp eq i32 %18, 0
  br i1 %.not30, label %23, label %19

19:                                               ; preds = %16
  %20 = getelementptr i8, ptr %11, i64 12
  %.val26 = load i32, ptr %20, align 4, !tbaa !26
  %21 = icmp eq i32 %.val26, 0
  br i1 %21, label %22, label %23

22:                                               ; preds = %19
  tail call void @Ivy_ObjDelete_rec(ptr noundef %0, ptr noundef nonnull %11, i32 noundef 1)
  br label %23

23:                                               ; preds = %22, %19, %16, %7
  %.not20 = icmp eq i64 %14, 0
  br i1 %.not20, label %30, label %24

24:                                               ; preds = %23
  %25 = getelementptr i8, ptr %15, i64 8
  %.val28 = load i32, ptr %25, align 8
  %26 = and i32 %.val28, 15
  %.not31 = icmp eq i32 %26, 0
  br i1 %.not31, label %30, label %27

27:                                               ; preds = %24
  %28 = getelementptr i8, ptr %15, i64 12
  %.val25 = load i32, ptr %28, align 4, !tbaa !26
  %29 = icmp eq i32 %.val25, 0
  br i1 %29, label %tailrecurse, label %30

30:                                               ; preds = %23, %24, %27, %tailrecurse, %4
  ret void
}